target datalayout = "e-m:e-p270:32:32-p271:32:32-p272:64:64-i64:64-i128:128-f80:128-n8:16:32:64-S128"
target triple = "x86_64-pc-linux-gnu"

%struct.PlatformTarget = type { ptr, i32, ptr, ptr, i32, i32, i32, i32, i32, i32, i32, [7 x %struct.AlignData], [7 x %struct.AlignData], [7 x %struct.AlignData], i32, i16, %union.anon.88, i8, i8, i8, i8, i8, i8, i8, i8, i8, i8, %struct.AlignData, i32, i32, i32, i32, i32, i32, i32, i32, i32, i32, i32, i32, i32, i32, i32, i32, ptr }
%union.anon.88 = type { %struct.anon.90 }
%struct.anon.90 = type { %struct.X86Features, i32, i32 }
%struct.X86Features = type { [2 x i64], ptr }
%struct.AlignData = type { i32, i32 }

@.str = private unnamed_addr constant [36 x i8] c"FATAL ERROR %s -> in %s @ in %s:%d \00", align 1
@.str.2 = private unnamed_addr constant [110 x i8] c"generated/home/dtcxzyw/WorkSpace/Projects/compilers/llvm-opt-benchmark/bench/c3c/c3c/src/compiler/abi/c_abi.c\00", align 1
@platform_target = external global %struct.PlatformTarget, align 8
@.str.3 = private unnamed_addr constant [16 x i8] c"Unsupported ABI\00", align 1
@__func__.c_abi_func_create = private unnamed_addr constant [18 x i8] c"c_abi_func_create\00", align 1

; Function Attrs: nounwind uwtable
define dso_local void @c_abi_func_create(ptr noundef %0) #0 {
  %2 = alloca ptr, align 8
  store ptr %0, ptr %2, align 8
  %3 = load ptr, ptr %2, align 8
  %4 = load i16, ptr %3, align 8
  %5 = and i16 %4, -257
  %6 = or i16 %5, 256
  store i16 %6, ptr %3, align 8
  %7 = load i32, ptr getelementptr inbounds (%struct.PlatformTarget, ptr @platform_target, i32 0, i32 10), align 8
  switch i32 %7, label %20 [
    i32 1, label %8
    i32 3, label %10
    i32 2, label %12
    i32 4, label %14
    i32 9, label %16
    i32 5, label %18
  ]

8:                                                ; preds = %1
  %9 = load ptr, ptr %2, align 8
  call void @c_abi_func_create_x64(ptr noundef %9)
  br label %23

10:                                               ; preds = %1
  %11 = load ptr, ptr %2, align 8
  call void @c_abi_func_create_x86(ptr noundef %11)
  br label %23

12:                                               ; preds = %1
  %13 = load ptr, ptr %2, align 8
  call void @c_abi_func_create_win64(ptr noundef %13)
  br label %23

14:                                               ; preds = %1
  %15 = load ptr, ptr %2, align 8
  call void @c_abi_func_create_aarch64(ptr noundef %15)
  br label %23

16:                                               ; preds = %1
  %17 = load ptr, ptr %2, align 8
  call void @c_abi_func_create_riscv(ptr noundef %17)
  br label %23

18:                                               ; preds = %1
  %19 = load ptr, ptr %2, align 8
  call void @c_abi_func_create_wasm(ptr noundef %19)
  br label %23

20:                                               ; preds = %1
  br label %21

21:                                               ; preds = %20
  call void (ptr, ...) @error_exit(ptr noundef @.str, ptr noundef @.str.3, ptr noundef @__func__.c_abi_func_create, ptr noundef @.str.2, i32 noundef 217) #4
  unreachable

22:                                               ; No predecessors!
  br label %23

23:                                               ; preds = %22, %18, %16, %14, %12, %10, %8
  ret void
}