; Function Attrs: nounwind uwtable
define dso_local void @c_abi_func_create(ptr noundef %0) local_unnamed_addr #2 {
  %2 = load i16, ptr %0, align 8
  %3 = or i16 %2, 256
  store i16 %3, ptr %0, align 8
  %4 = load i32, ptr getelementptr inbounds (%struct.PlatformTarget, ptr @platform_target, i64 0, i32 10), align 8
  switch i32 %4, label %11 [
    i32 1, label %5
    i32 3, label %6
    i32 2, label %7
    i32 4, label %8
    i32 9, label %9
    i32 5, label %10
  ]

5:                                                ; preds = %1
  tail call void @c_abi_func_create_x64(ptr noundef nonnull %0) #5
  br label %12

6:                                                ; preds = %1
  tail call void @c_abi_func_create_x86(ptr noundef nonnull %0) #5
  br label %12

7:                                                ; preds = %1
  tail call void @c_abi_func_create_win64(ptr noundef nonnull %0) #5
  br label %12

8:                                                ; preds = %1
  tail call void @c_abi_func_create_aarch64(ptr noundef nonnull %0) #5
  br label %12

9:                                                ; preds = %1
  tail call void @c_abi_func_create_riscv(ptr noundef nonnull %0) #5
  br label %12

10:                                               ; preds = %1
  tail call void @c_abi_func_create_wasm(ptr noundef nonnull %0) #5
  br label %12

11:                                               ; preds = %1
  tail call void (ptr, ...) @error_exit(ptr noundef nonnull @.str, ptr noundef nonnull @.str.3, ptr noundef nonnull @__func__.c_abi_func_create, ptr noundef nonnull @.str.2, i32 noundef 217) #6
  unreachable

12:                                               ; preds = %10, %9, %8, %7, %6, %5
  ret void
}